target datalayout = "e-m:e-p270:32:32-p271:32:32-p272:64:64-i64:64-i128:128-f80:128-n8:16:32:64-S128"
target triple = "x86_64-pc-linux-gnu"

%struct.AVFilterContext = type { ptr, ptr, ptr, ptr, ptr, i32, ptr, ptr, i32, ptr, ptr, i32, i32, ptr, ptr, ptr, ptr, i32, ptr, i32, i32 }
%struct.SignalstatsContext = type { ptr, i32, i32, i32, i32, i32, i32, i32, i32, i32, ptr, [4 x i8], [3 x i32], i32, ptr, i32, ptr, ptr, ptr, ptr, ptr, ptr }
%struct.ThreadData = type { ptr, ptr }
%struct.AVChannelLayout = type { i32, i32, %union.anon.1, ptr }
%union.anon.1 = type { i64 }
%struct.AVRational = type { i32, i32 }
%struct.AVFrame = type { [8 x ptr], [8 x i32], ptr, i32, i32, i32, i32, i32, %struct.AVRational, i64, i64, %struct.AVRational, i32, ptr, i32, i32, [8 x ptr], ptr, i32, ptr, i32, i32, i32, i32, i32, i32, i32, i64, ptr, i32, ptr, ptr, i64, i64, i64, i64, ptr, %struct.AVChannelLayout, i64 }

; Function Attrs: nounwind uwtable
define internal void @burn_frame8(ptr noundef %0, ptr noundef %1, i32 noundef %2, i32 noundef %3) #1 {
  %5 = alloca ptr, align 8
  %6 = alloca ptr, align 8
  %7 = alloca i32, align 4
  %8 = alloca i32, align 4
  %9 = alloca i32, align 4
  %10 = alloca i32, align 4
  store ptr %0, ptr %5, align 8, !tbaa !22
  store ptr %1, ptr %6, align 8, !tbaa !33
  store i32 %2, ptr %7, align 4, !tbaa !30
  store i32 %3, ptr %8, align 4, !tbaa !30
  call void @llvm.lifetime.start.p0(i64 4, ptr %9) #11
  %11 = load i32, ptr %7, align 4, !tbaa !30
  %12 = load ptr, ptr %5, align 8, !tbaa !22
  %13 = getelementptr inbounds nuw %struct.SignalstatsContext, ptr %12, i32 0, i32 3
  %14 = load i32, ptr %13, align 8, !tbaa !121
  %15 = ashr i32 %11, %14
  store i32 %15, ptr %9, align 4, !tbaa !30
  call void @llvm.lifetime.start.p0(i64 4, ptr %10) #11
  %16 = load i32, ptr %8, align 4, !tbaa !30
  %17 = load ptr, ptr %5, align 8, !tbaa !22
  %18 = getelementptr inbounds nuw %struct.SignalstatsContext, ptr %17, i32 0, i32 4
  %19 = load i32, ptr %18, align 4, !tbaa !120
  %20 = ashr i32 %16, %19
  store i32 %20, ptr %10, align 4, !tbaa !30
  %21 = load ptr, ptr %5, align 8, !tbaa !22
  %22 = getelementptr inbounds nuw %struct.SignalstatsContext, ptr %21, i32 0, i32 12
  %23 = getelementptr inbounds [3 x i32], ptr %22, i64 0, i64 0
  %24 = load i32, ptr %23, align 4, !tbaa !30
  %25 = trunc i32 %24 to i8
  %26 = load ptr, ptr %6, align 8, !tbaa !33
  %27 = getelementptr inbounds nuw %struct.AVFrame, ptr %26, i32 0, i32 0
  %28 = getelementptr inbounds [8 x ptr], ptr %27, i64 0, i64 0
  %29 = load ptr, ptr %28, align 8, !tbaa !62
  %30 = load i32, ptr %8, align 4, !tbaa !30
  %31 = load ptr, ptr %6, align 8, !tbaa !33
  %32 = getelementptr inbounds nuw %struct.AVFrame, ptr %31, i32 0, i32 1
  %33 = getelementptr inbounds [8 x i32], ptr %32, i64 0, i64 0
  %34 = load i32, ptr %33, align 8, !tbaa !30
  %35 = mul nsw i32 %30, %34
  %36 = load i32, ptr %7, align 4, !tbaa !30
  %37 = add nsw i32 %35, %36
  %38 = sext i32 %37 to i64
  %39 = getelementptr inbounds i8, ptr %29, i64 %38
  store i8 %25, ptr %39, align 1, !tbaa !29
  %40 = load ptr, ptr %5, align 8, !tbaa !22
  %41 = getelementptr inbounds nuw %struct.SignalstatsContext, ptr %40, i32 0, i32 12
  %42 = getelementptr inbounds [3 x i32], ptr %41, i64 0, i64 1
  %43 = load i32, ptr %42, align 4, !tbaa !30
  %44 = trunc i32 %43 to i8
  %45 = load ptr, ptr %6, align 8, !tbaa !33
  %46 = getelementptr inbounds nuw %struct.AVFrame, ptr %45, i32 0, i32 0
  %47 = getelementptr inbounds [8 x ptr], ptr %46, i64 0, i64 1
  %48 = load ptr, ptr %47, align 8, !tbaa !62
  %49 = load i32, ptr %10, align 4, !tbaa !30
  %50 = load ptr, ptr %6, align 8, !tbaa !33
  %51 = getelementptr inbounds nuw %struct.AVFrame, ptr %50, i32 0, i32 1
  %52 = getelementptr inbounds [8 x i32], ptr %51, i64 0, i64 1
  %53 = load i32, ptr %52, align 4, !tbaa !30
  %54 = mul nsw i32 %49, %53
  %55 = load i32, ptr %9, align 4, !tbaa !30
  %56 = add nsw i32 %54, %55
  %57 = sext i32 %56 to i64
  %58 = getelementptr inbounds i8, ptr %48, i64 %57
  store i8 %44, ptr %58, align 1, !tbaa !29
  %59 = load ptr, ptr %5, align 8, !tbaa !22
  %60 = getelementptr inbounds nuw %struct.SignalstatsContext, ptr %59, i32 0, i32 12
  %61 = getelementptr inbounds [3 x i32], ptr %60, i64 0, i64 2
  %62 = load i32, ptr %61, align 4, !tbaa !30
  %63 = trunc i32 %62 to i8
  %64 = load ptr, ptr %6, align 8, !tbaa !33
  %65 = getelementptr inbounds nuw %struct.AVFrame, ptr %64, i32 0, i32 0
  %66 = getelementptr inbounds [8 x ptr], ptr %65, i64 0, i64 2
  %67 = load ptr, ptr %66, align 8, !tbaa !62
  %68 = load i32, ptr %10, align 4, !tbaa !30
  %69 = load ptr, ptr %6, align 8, !tbaa !33
  %70 = getelementptr inbounds nuw %struct.AVFrame, ptr %69, i32 0, i32 1
  %71 = getelementptr inbounds [8 x i32], ptr %70, i64 0, i64 2
  %72 = load i32, ptr %71, align 8, !tbaa !30
  %73 = mul nsw i32 %68, %72
  %74 = load i32, ptr %9, align 4, !tbaa !30
  %75 = add nsw i32 %73, %74
  %76 = sext i32 %75 to i64
  %77 = getelementptr inbounds i8, ptr %67, i64 %76
  store i8 %63, ptr %77, align 1, !tbaa !29
  call void @llvm.lifetime.end.p0(i64 4, ptr %10) #11
  call void @llvm.lifetime.end.p0(i64 4, ptr %9) #11
  ret void
}

; Function Attrs: nounwind uwtable
define internal i32 @filter8_brng(ptr noundef %0, ptr noundef %1, i32 noundef %2, i32 noundef %3) #1 {
  %5 = alloca ptr, align 8
  %6 = alloca ptr, align 8
  %7 = alloca i32, align 4
  %8 = alloca i32, align 4
  %9 = alloca ptr, align 8
  %10 = alloca ptr, align 8
  %11 = alloca ptr, align 8
  %12 = alloca ptr, align 8
  %13 = alloca i32, align 4
  %14 = alloca i32, align 4
  %15 = alloca i32, align 4
  %16 = alloca i32, align 4
  %17 = alloca i32, align 4
  %18 = alloca i32, align 4
  %19 = alloca i32, align 4
  %20 = alloca i32, align 4
  %21 = alloca ptr, align 8
  %22 = alloca ptr, align 8
  %23 = alloca ptr, align 8
  %24 = alloca i32, align 4
  %25 = alloca i32, align 4
  %26 = alloca i32, align 4
  %27 = alloca i32, align 4
  %28 = alloca i32, align 4
  store ptr %0, ptr %5, align 8, !tbaa !4
  store ptr %1, ptr %6, align 8, !tbaa !93
  store i32 %2, ptr %7, align 4, !tbaa !30
  store i32 %3, ptr %8, align 4, !tbaa !30
  call void @llvm.lifetime.start.p0(i64 8, ptr %9) #11
  %29 = load ptr, ptr %6, align 8, !tbaa !93
  store ptr %29, ptr %9, align 8, !tbaa !100
  call void @llvm.lifetime.start.p0(i64 8, ptr %10) #11
  %30 = load ptr, ptr %5, align 8, !tbaa !4
  %31 = getelementptr inbounds nuw %struct.AVFilterContext, ptr %30, i32 0, i32 9
  %32 = load ptr, ptr %31, align 8, !tbaa !9
  store ptr %32, ptr %10, align 8, !tbaa !22
  call void @llvm.lifetime.start.p0(i64 8, ptr %11) #11
  %33 = load ptr, ptr %9, align 8, !tbaa !100
  %34 = getelementptr inbounds nuw %struct.ThreadData, ptr %33, i32 0, i32 0
  %35 = load ptr, ptr %34, align 8, !tbaa !77
  store ptr %35, ptr %11, align 8, !tbaa !33
  call void @llvm.lifetime.start.p0(i64 8, ptr %12) #11
  %36 = load ptr, ptr %9, align 8, !tbaa !100
  %37 = getelementptr inbounds nuw %struct.ThreadData, ptr %36, i32 0, i32 1
  %38 = load ptr, ptr %37, align 8, !tbaa !79
  store ptr %38, ptr %12, align 8, !tbaa !33
  call void @llvm.lifetime.start.p0(i64 4, ptr %13) #11
  %39 = load ptr, ptr %11, align 8, !tbaa !33
  %40 = getelementptr inbounds nuw %struct.AVFrame, ptr %39, i32 0, i32 3
  %41 = load i32, ptr %40, align 8, !tbaa !102
  store i32 %41, ptr %13, align 4, !tbaa !30
  call void @llvm.lifetime.start.p0(i64 4, ptr %14) #11
  %42 = load ptr, ptr %11, align 8, !tbaa !33
  %43 = getelementptr inbounds nuw %struct.AVFrame, ptr %42, i32 0, i32 4
  %44 = load i32, ptr %43, align 4, !tbaa !107
  store i32 %44, ptr %14, align 4, !tbaa !30
  call void @llvm.lifetime.start.p0(i64 4, ptr %15) #11
  %45 = load i32, ptr %14, align 4, !tbaa !30
  %46 = load i32, ptr %7, align 4, !tbaa !30
  %47 = mul nsw i32 %45, %46
  %48 = load i32, ptr %8, align 4, !tbaa !30
  %49 = sdiv i32 %47, %48
  store i32 %49, ptr %15, align 4, !tbaa !30
  call void @llvm.lifetime.start.p0(i64 4, ptr %16) #11
  %50 = load i32, ptr %14, align 4, !tbaa !30
  %51 = load i32, ptr %7, align 4, !tbaa !30
  %52 = add nsw i32 %51, 1
  %53 = mul nsw i32 %50, %52
  %54 = load i32, ptr %8, align 4, !tbaa !30
  %55 = sdiv i32 %53, %54
  store i32 %55, ptr %16, align 4, !tbaa !30
  call void @llvm.lifetime.start.p0(i64 4, ptr %17) #11
  call void @llvm.lifetime.start.p0(i64 4, ptr %18) #11
  call void @llvm.lifetime.start.p0(i64 4, ptr %19) #11
  store i32 0, ptr %19, align 4, !tbaa !30
  %56 = load i32, ptr %15, align 4, !tbaa !30
  store i32 %56, ptr %18, align 4, !tbaa !30
  br label %57

57:                                               ; preds = %169, %4
  %58 = load i32, ptr %18, align 4, !tbaa !30
  %59 = load i32, ptr %16, align 4, !tbaa !30
  %60 = icmp slt i32 %58, %59
  br i1 %60, label %61, label %172

61:                                               ; preds = %57
  call void @llvm.lifetime.start.p0(i64 4, ptr %20) #11
  %62 = load i32, ptr %18, align 4, !tbaa !30
  %63 = load ptr, ptr %10, align 8, !tbaa !22
  %64 = getelementptr inbounds nuw %struct.SignalstatsContext, ptr %63, i32 0, i32 4
  %65 = load i32, ptr %64, align 4, !tbaa !120
  %66 = ashr i32 %62, %65
  store i32 %66, ptr %20, align 4, !tbaa !30
  call void @llvm.lifetime.start.p0(i64 8, ptr %21) #11
  %67 = load ptr, ptr %11, align 8, !tbaa !33
  %68 = getelementptr inbounds nuw %struct.AVFrame, ptr %67, i32 0, i32 0
  %69 = getelementptr inbounds [8 x ptr], ptr %68, i64 0, i64 0
  %70 = load ptr, ptr %69, align 8, !tbaa !62
  %71 = load i32, ptr %18, align 4, !tbaa !30
  %72 = load ptr, ptr %11, align 8, !tbaa !33
  %73 = getelementptr inbounds nuw %struct.AVFrame, ptr %72, i32 0, i32 1
  %74 = getelementptr inbounds [8 x i32], ptr %73, i64 0, i64 0
  %75 = load i32, ptr %74, align 8, !tbaa !30
  %76 = mul nsw i32 %71, %75
  %77 = sext i32 %76 to i64
  %78 = getelementptr inbounds i8, ptr %70, i64 %77
  store ptr %78, ptr %21, align 8, !tbaa !62
  call void @llvm.lifetime.start.p0(i64 8, ptr %22) #11
  %79 = load ptr, ptr %11, align 8, !tbaa !33
  %80 = getelementptr inbounds nuw %struct.AVFrame, ptr %79, i32 0, i32 0
  %81 = getelementptr inbounds [8 x ptr], ptr %80, i64 0, i64 1
  %82 = load ptr, ptr %81, align 8, !tbaa !62
  %83 = load i32, ptr %20, align 4, !tbaa !30
  %84 = load ptr, ptr %11, align 8, !tbaa !33
  %85 = getelementptr inbounds nuw %struct.AVFrame, ptr %84, i32 0, i32 1
  %86 = getelementptr inbounds [8 x i32], ptr %85, i64 0, i64 1
  %87 = load i32, ptr %86, align 4, !tbaa !30
  %88 = mul nsw i32 %83, %87
  %89 = sext i32 %88 to i64
  %90 = getelementptr inbounds i8, ptr %82, i64 %89
  store ptr %90, ptr %22, align 8, !tbaa !62
  call void @llvm.lifetime.start.p0(i64 8, ptr %23) #11
  %91 = load ptr, ptr %11, align 8, !tbaa !33
  %92 = getelementptr inbounds nuw %struct.AVFrame, ptr %91, i32 0, i32 0
  %93 = getelementptr inbounds [8 x ptr], ptr %92, i64 0, i64 2
  %94 = load ptr, ptr %93, align 8, !tbaa !62
  %95 = load i32, ptr %20, align 4, !tbaa !30
  %96 = load ptr, ptr %11, align 8, !tbaa !33
  %97 = getelementptr inbounds nuw %struct.AVFrame, ptr %96, i32 0, i32 1
  %98 = getelementptr inbounds [8 x i32], ptr %97, i64 0, i64 2
  %99 = load i32, ptr %98, align 8, !tbaa !30
  %100 = mul nsw i32 %95, %99
  %101 = sext i32 %100 to i64
  %102 = getelementptr inbounds i8, ptr %94, i64 %101
  store ptr %102, ptr %23, align 8, !tbaa !62
  store i32 0, ptr %17, align 4, !tbaa !30
  br label %103

103:                                              ; preds = %165, %61
  %104 = load i32, ptr %17, align 4, !tbaa !30
  %105 = load i32, ptr %13, align 4, !tbaa !30
  %106 = icmp slt i32 %104, %105
  br i1 %106, label %107, label %168

107:                                              ; preds = %103
  call void @llvm.lifetime.start.p0(i64 4, ptr %24) #11
  %108 = load i32, ptr %17, align 4, !tbaa !30
  %109 = load ptr, ptr %10, align 8, !tbaa !22
  %110 = getelementptr inbounds nuw %struct.SignalstatsContext, ptr %109, i32 0, i32 3
  %111 = load i32, ptr %110, align 8, !tbaa !121
  %112 = ashr i32 %108, %111
  store i32 %112, ptr %24, align 4, !tbaa !30
  call void @llvm.lifetime.start.p0(i64 4, ptr %25) #11
  %113 = load ptr, ptr %21, align 8, !tbaa !62
  %114 = load i32, ptr %17, align 4, !tbaa !30
  %115 = sext i32 %114 to i64
  %116 = getelementptr inbounds i8, ptr %113, i64 %115
  %117 = load i8, ptr %116, align 1, !tbaa !29
  %118 = zext i8 %117 to i32
  store i32 %118, ptr %25, align 4, !tbaa !30
  call void @llvm.lifetime.start.p0(i64 4, ptr %26) #11
  %119 = load ptr, ptr %22, align 8, !tbaa !62
  %120 = load i32, ptr %24, align 4, !tbaa !30
  %121 = sext i32 %120 to i64
  %122 = getelementptr inbounds i8, ptr %119, i64 %121
  %123 = load i8, ptr %122, align 1, !tbaa !29
  %124 = zext i8 %123 to i32
  store i32 %124, ptr %26, align 4, !tbaa !30
  call void @llvm.lifetime.start.p0(i64 4, ptr %27) #11
  %125 = load ptr, ptr %23, align 8, !tbaa !62
  %126 = load i32, ptr %24, align 4, !tbaa !30
  %127 = sext i32 %126 to i64
  %128 = getelementptr inbounds i8, ptr %125, i64 %127
  %129 = load i8, ptr %128, align 1, !tbaa !29
  %130 = zext i8 %129 to i32
  store i32 %130, ptr %27, align 4, !tbaa !30
  call void @llvm.lifetime.start.p0(i64 4, ptr %28) #11
  %131 = load i32, ptr %25, align 4, !tbaa !30
  %132 = icmp slt i32 %131, 16
  br i1 %132, label %148, label %133

133:                                              ; preds = %107
  %134 = load i32, ptr %25, align 4, !tbaa !30
  %135 = icmp sgt i32 %134, 235
  br i1 %135, label %148, label %136

136:                                              ; preds = %133
  %137 = load i32, ptr %26, align 4, !tbaa !30
  %138 = icmp slt i32 %137, 16
  br i1 %138, label %148, label %139

139:                                              ; preds = %136
  %140 = load i32, ptr %26, align 4, !tbaa !30
  %141 = icmp sgt i32 %140, 240
  br i1 %141, label %148, label %142

142:                                              ; preds = %139
  %143 = load i32, ptr %27, align 4, !tbaa !30
  %144 = icmp slt i32 %143, 16
  br i1 %144, label %148, label %145

145:                                              ; preds = %142
  %146 = load i32, ptr %27, align 4, !tbaa !30
  %147 = icmp sgt i32 %146, 240
  br label %148

148:                                              ; preds = %145, %142, %139, %136, %133, %107
  %149 = phi i1 [ true, %142 ], [ true, %139 ], [ true, %136 ], [ true, %133 ], [ true, %107 ], [ %147, %145 ]
  %150 = zext i1 %149 to i32
  store i32 %150, ptr %28, align 4, !tbaa !30
  %151 = load i32, ptr %28, align 4, !tbaa !30
  %152 = load i32, ptr %19, align 4, !tbaa !30
  %153 = add nsw i32 %152, %151
  store i32 %153, ptr %19, align 4, !tbaa !30
  %154 = load ptr, ptr %12, align 8, !tbaa !33
  %155 = icmp ne ptr %154, null
  br i1 %155, label %156, label %164

156:                                              ; preds = %148
  %157 = load i32, ptr %28, align 4, !tbaa !30
  %158 = icmp ne i32 %157, 0
  br i1 %158, label %159, label %164

159:                                              ; preds = %156
  %160 = load ptr, ptr %10, align 8, !tbaa !22
  %161 = load ptr, ptr %12, align 8, !tbaa !33
  %162 = load i32, ptr %17, align 4, !tbaa !30
  %163 = load i32, ptr %18, align 4, !tbaa !30
  call void @burn_frame8(ptr noundef %160, ptr noundef %161, i32 noundef %162, i32 noundef %163)
  br label %164

164:                                              ; preds = %159, %156, %148
  call void @llvm.lifetime.end.p0(i64 4, ptr %28) #11
  call void @llvm.lifetime.end.p0(i64 4, ptr %27) #11
  call void @llvm.lifetime.end.p0(i64 4, ptr %26) #11
  call void @llvm.lifetime.end.p0(i64 4, ptr %25) #11
  call void @llvm.lifetime.end.p0(i64 4, ptr %24) #11
  br label %165

165:                                              ; preds = %164
  %166 = load i32, ptr %17, align 4, !tbaa !30
  %167 = add nsw i32 %166, 1
  store i32 %167, ptr %17, align 4, !tbaa !30
  br label %103, !llvm.loop !122

168:                                              ; preds = %103
  call void @llvm.lifetime.end.p0(i64 8, ptr %23) #11
  call void @llvm.lifetime.end.p0(i64 8, ptr %22) #11
  call void @llvm.lifetime.end.p0(i64 8, ptr %21) #11
  call void @llvm.lifetime.end.p0(i64 4, ptr %20) #11
  br label %169

169:                                              ; preds = %168
  %170 = load i32, ptr %18, align 4, !tbaa !30
  %171 = add nsw i32 %170, 1
  store i32 %171, ptr %18, align 4, !tbaa !30
  br label %57, !llvm.loop !123

172:                                              ; preds = %57
  %173 = load i32, ptr %19, align 4, !tbaa !30
  call void @llvm.lifetime.end.p0(i64 4, ptr %19) #11
  call void @llvm.lifetime.end.p0(i64 4, ptr %18) #11
  call void @llvm.lifetime.end.p0(i64 4, ptr %17) #11
  call void @llvm.lifetime.end.p0(i64 4, ptr %16) #11
  call void @llvm.lifetime.end.p0(i64 4, ptr %15) #11
  call void @llvm.lifetime.end.p0(i64 4, ptr %14) #11
  call void @llvm.lifetime.end.p0(i64 4, ptr %13) #11
  call void @llvm.lifetime.end.p0(i64 8, ptr %12) #11
  call void @llvm.lifetime.end.p0(i64 8, ptr %11) #11
  call void @llvm.lifetime.end.p0(i64 8, ptr %10) #11
  call void @llvm.lifetime.end.p0(i64 8, ptr %9) #11
  ret i32 %173
}