; Function Attrs: nofree norecurse nosync nounwind memory(readwrite, inaccessiblemem: none) uwtable
define internal i32 @filter8_brng(ptr noundef readonly captures(none) %0, ptr noundef readonly captures(none) %1, i32 noundef %2, i32 noundef %3) #6 {
  %5 = load ptr, ptr %1, align 8, !tbaa !70
  %6 = getelementptr inbounds nuw i8, ptr %1, i64 8
  %7 = load ptr, ptr %6, align 8, !tbaa !72
  %.fr82 = freeze ptr %7
  %8 = getelementptr inbounds nuw i8, ptr %5, i64 104
  %9 = load i32, ptr %8, align 8, !tbaa !95
  %10 = getelementptr inbounds nuw i8, ptr %5, i64 108
  %11 = load i32, ptr %10, align 4, !tbaa !89
  %12 = mul nsw i32 %11, %2
  %13 = sdiv i32 %12, %3
  %14 = add nsw i32 %2, 1
  %15 = mul nsw i32 %11, %14
  %16 = sdiv i32 %15, %3
  %17 = icmp slt i32 %13, %16
  br i1 %17, label %.lr.ph70, label %._crit_edge71

.lr.ph70:                                         ; preds = %4
  %18 = getelementptr inbounds nuw i8, ptr %0, i64 72
  %19 = load ptr, ptr %18, align 8, !tbaa !4
  %20 = getelementptr inbounds nuw i8, ptr %19, i64 20
  %21 = getelementptr inbounds nuw i8, ptr %5, i64 64
  %22 = getelementptr inbounds nuw i8, ptr %5, i64 8
  %23 = getelementptr inbounds nuw i8, ptr %5, i64 68
  %24 = getelementptr inbounds nuw i8, ptr %5, i64 16
  %25 = getelementptr inbounds nuw i8, ptr %5, i64 72
  %26 = icmp sgt i32 %9, 0
  %27 = getelementptr inbounds nuw i8, ptr %19, i64 16
  %28 = getelementptr inbounds nuw i8, ptr %19, i64 60
  %29 = getelementptr inbounds nuw i8, ptr %.fr82, i64 64
  %30 = getelementptr inbounds nuw i8, ptr %19, i64 64
  %31 = getelementptr inbounds nuw i8, ptr %.fr82, i64 8
  %32 = getelementptr inbounds nuw i8, ptr %.fr82, i64 68
  %33 = getelementptr inbounds nuw i8, ptr %19, i64 68
  %34 = getelementptr inbounds nuw i8, ptr %.fr82, i64 16
  %35 = getelementptr inbounds nuw i8, ptr %.fr82, i64 72
  br i1 %26, label %.lr.ph70.split.us, label %._crit_edge71

.lr.ph70.split.us:                                ; preds = %.lr.ph70
  %.not = icmp eq ptr %.fr82, null
  br i1 %.not, label %.lr.ph70.split.us.split, label %.lr.ph.us.us.preheader

.lr.ph.us.us.preheader:                           ; preds = %.lr.ph70.split.us
  %wide.trip.count = zext nneg i32 %9 to i64
  br label %.lr.ph.us.us

.lr.ph.us.us:                                     ; preds = %.lr.ph.us.us.preheader, %._crit_edge.split.us78.us
  %.06167.us.us = phi i32 [ %99, %._crit_edge.split.us78.us ], [ %13, %.lr.ph.us.us.preheader ]
  %.06266.us.us = phi i32 [ %70, %._crit_edge.split.us78.us ], [ 0, %.lr.ph.us.us.preheader ]
  %36 = load i32, ptr %20, align 4, !tbaa !97
  %37 = ashr i32 %.06167.us.us, %36
  %38 = load ptr, ptr %5, align 8, !tbaa !54
  %39 = load i32, ptr %21, align 8, !tbaa !26
  %40 = mul nsw i32 %39, %.06167.us.us
  %41 = sext i32 %40 to i64
  %42 = getelementptr inbounds i8, ptr %38, i64 %41
  %43 = load ptr, ptr %22, align 8, !tbaa !54
  %44 = load i32, ptr %23, align 4, !tbaa !26
  %45 = mul nsw i32 %44, %37
  %46 = sext i32 %45 to i64
  %47 = getelementptr inbounds i8, ptr %43, i64 %46
  %48 = load ptr, ptr %24, align 8, !tbaa !54
  %49 = load i32, ptr %25, align 8, !tbaa !26
  %50 = mul nsw i32 %49, %37
  %51 = sext i32 %50 to i64
  %52 = getelementptr inbounds i8, ptr %48, i64 %51
  br label %53

53:                                               ; preds = %.lr.ph.us.us, %98
  %indvars.iv = phi i64 [ 0, %.lr.ph.us.us ], [ %indvars.iv.next, %98 ]
  %.164.us74.us = phi i32 [ %.06266.us.us, %.lr.ph.us.us ], [ %70, %98 ]
  %54 = load i32, ptr %27, align 8, !tbaa !96
  %55 = trunc nuw nsw i64 %indvars.iv to i32
  %56 = lshr i32 %55, %54
  %57 = getelementptr inbounds nuw i8, ptr %42, i64 %indvars.iv
  %58 = load i8, ptr %57, align 1, !tbaa !25
  %59 = zext nneg i32 %56 to i64
  %60 = getelementptr inbounds nuw i8, ptr %47, i64 %59
  %61 = load i8, ptr %60, align 1, !tbaa !25
  %62 = getelementptr inbounds nuw i8, ptr %52, i64 %59
  %63 = load i8, ptr %62, align 1, !tbaa !25
  %64 = add i8 %58, 20
  %or.cond.us75.us = icmp ult i8 %64, 36
  %65 = add i8 %61, 15
  %66 = icmp ult i8 %65, 31
  %or.cond5.us76.us = select i1 %or.cond.us75.us, i1 true, i1 %66
  %67 = add i8 %63, 15
  %68 = icmp ult i8 %67, 31
  %spec.select.us77.us = select i1 %or.cond5.us76.us, i1 true, i1 %68
  %69 = zext i1 %spec.select.us77.us to i32
  %70 = add nsw i32 %.164.us74.us, %69
  br i1 %spec.select.us77.us, label %71, label %98

71:                                               ; preds = %53
  %72 = load i32, ptr %20, align 4, !tbaa !97
  %73 = ashr i32 %.06167.us.us, %72
  %74 = load i32, ptr %28, align 4, !tbaa !26
  %75 = trunc i32 %74 to i8
  %76 = load ptr, ptr %.fr82, align 8, !tbaa !54
  %77 = load i32, ptr %29, align 8, !tbaa !26
  %78 = mul nsw i32 %77, %.06167.us.us
  %79 = add nsw i32 %78, %55
  %80 = sext i32 %79 to i64
  %81 = getelementptr inbounds i8, ptr %76, i64 %80
  store i8 %75, ptr %81, align 1, !tbaa !25
  %82 = load i32, ptr %30, align 4, !tbaa !26
  %83 = trunc i32 %82 to i8
  %84 = load ptr, ptr %31, align 8, !tbaa !54
  %85 = load i32, ptr %32, align 4, !tbaa !26
  %86 = mul nsw i32 %85, %73
  %87 = add nsw i32 %86, %56
  %88 = sext i32 %87 to i64
  %89 = getelementptr inbounds i8, ptr %84, i64 %88
  store i8 %83, ptr %89, align 1, !tbaa !25
  %90 = load i32, ptr %33, align 4, !tbaa !26
  %91 = trunc i32 %90 to i8
  %92 = load ptr, ptr %34, align 8, !tbaa !54
  %93 = load i32, ptr %35, align 8, !tbaa !26
  %94 = mul nsw i32 %93, %73
  %95 = add nsw i32 %94, %56
  %96 = sext i32 %95 to i64
  %97 = getelementptr inbounds i8, ptr %92, i64 %96
  store i8 %91, ptr %97, align 1, !tbaa !25
  br label %98

98:                                               ; preds = %71, %53
  %indvars.iv.next = add nuw nsw i64 %indvars.iv, 1
  %exitcond.not = icmp eq i64 %indvars.iv.next, %wide.trip.count
  br i1 %exitcond.not, label %._crit_edge.split.us78.us, label %53, !llvm.loop !110

._crit_edge.split.us78.us:                        ; preds = %98
  %99 = add nsw i32 %.06167.us.us, 1
  %exitcond87.not = icmp eq i32 %99, %16
  br i1 %exitcond87.not, label %._crit_edge71, label %.lr.ph.us.us, !llvm.loop !111

.lr.ph70.split.us.split:                          ; preds = %.lr.ph70.split.us
  %100 = load i32, ptr %20, align 4, !tbaa !97
  %101 = load ptr, ptr %5, align 8, !tbaa !54
  %102 = load i32, ptr %21, align 8, !tbaa !26
  %103 = load ptr, ptr %22, align 8, !tbaa !54
  %104 = load i32, ptr %23, align 4, !tbaa !26
  %105 = load ptr, ptr %24, align 8, !tbaa !54
  %106 = load i32, ptr %25, align 8, !tbaa !26
  %107 = load i32, ptr %27, align 8, !tbaa !96
  %108 = sext i32 %13 to i64
  %109 = sext i32 %102 to i64
  %wide.trip.count96 = sext i32 %16 to i64
  %wide.trip.count91 = zext nneg i32 %9 to i64
  br label %.lr.ph.us

.lr.ph.us:                                        ; preds = %._crit_edge.split.us.us, %.lr.ph70.split.us.split
  %indvars.iv93 = phi i64 [ %indvars.iv.next94, %._crit_edge.split.us.us ], [ %108, %.lr.ph70.split.us.split ]
  %.06266.us = phi i32 [ %136, %._crit_edge.split.us.us ], [ 0, %.lr.ph70.split.us.split ]
  %110 = trunc nsw i64 %indvars.iv93 to i32
  %111 = ashr i32 %110, %100
  %112 = mul nsw i64 %indvars.iv93, %109
  %113 = getelementptr inbounds i8, ptr %101, i64 %112
  %114 = mul nsw i32 %104, %111
  %115 = sext i32 %114 to i64
  %116 = getelementptr inbounds i8, ptr %103, i64 %115
  %117 = mul nsw i32 %106, %111
  %118 = sext i32 %117 to i64
  %119 = getelementptr inbounds i8, ptr %105, i64 %118
  br label %120

120:                                              ; preds = %120, %.lr.ph.us
  %indvars.iv88 = phi i64 [ %indvars.iv.next89, %120 ], [ 0, %.lr.ph.us ]
  %.164.us.us = phi i32 [ %136, %120 ], [ %.06266.us, %.lr.ph.us ]
  %121 = trunc nuw nsw i64 %indvars.iv88 to i32
  %122 = lshr i32 %121, %107
  %123 = getelementptr inbounds nuw i8, ptr %113, i64 %indvars.iv88
  %124 = load i8, ptr %123, align 1, !tbaa !25
  %125 = zext nneg i32 %122 to i64
  %126 = getelementptr inbounds nuw i8, ptr %116, i64 %125
  %127 = load i8, ptr %126, align 1, !tbaa !25
  %128 = getelementptr inbounds nuw i8, ptr %119, i64 %125
  %129 = load i8, ptr %128, align 1, !tbaa !25
  %130 = add i8 %124, 20
  %or.cond.us.us = icmp ult i8 %130, 36
  %131 = add i8 %127, 15
  %132 = icmp ult i8 %131, 31
  %or.cond5.us.us = select i1 %or.cond.us.us, i1 true, i1 %132
  %133 = add i8 %129, 15
  %134 = icmp ult i8 %133, 31
  %spec.select.us.us = select i1 %or.cond5.us.us, i1 true, i1 %134
  %135 = zext i1 %spec.select.us.us to i32
  %136 = add nsw i32 %.164.us.us, %135
  %indvars.iv.next89 = add nuw nsw i64 %indvars.iv88, 1
  %exitcond92.not = icmp eq i64 %indvars.iv.next89, %wide.trip.count91
  br i1 %exitcond92.not, label %._crit_edge.split.us.us, label %120, !llvm.loop !110

._crit_edge.split.us.us:                          ; preds = %120
  %indvars.iv.next94 = add nsw i64 %indvars.iv93, 1
  %exitcond97.not = icmp eq i64 %indvars.iv.next94, %wide.trip.count96
  br i1 %exitcond97.not, label %._crit_edge71, label %.lr.ph.us, !llvm.loop !111

._crit_edge71:                                    ; preds = %._crit_edge.split.us78.us, %._crit_edge.split.us.us, %.lr.ph70, %4
  %.062.lcssa = phi i32 [ 0, %4 ], [ 0, %.lr.ph70 ], [ %136, %._crit_edge.split.us.us ], [ %70, %._crit_edge.split.us78.us ]
  ret i32 %.062.lcssa
}